; Function Attrs: mustprogress nofree norecurse nosync nounwind willreturn memory(read, inaccessiblemem: none) uwtable
define noundef i32 @_ZNK10OpenSubdiv6v3_6_03Far10PatchTable28GetNumLocalPointsFaceVaryingEi(ptr nocapture noundef nonnull readonly align 8 dereferenceable(273) %0, i32 noundef %1) local_unnamed_addr #6 align 2 {
  %3 = icmp sgt i32 %1, -1
  br i1 %3, label %4, label %29

4:                                                ; preds = %2
  %5 = getelementptr inbounds nuw i8, ptr %0, i64 200
  %6 = getelementptr inbounds i8, ptr %0, i64 208
  %7 = load ptr, ptr %6, align 8
  %8 = load ptr, ptr %5, align 8
  %9 = ptrtoint ptr %7 to i64
  %10 = ptrtoint ptr %8 to i64
  %11 = sub i64 %9, %10
  %12 = lshr exact i64 %11, 3
  %13 = trunc i64 %12 to i32
  %14 = icmp slt i32 %1, %13
  br i1 %14, label %15, label %29

15:                                               ; preds = %4
  %16 = zext nneg i32 %1 to i64
  %17 = getelementptr inbounds %"class.OpenSubdiv::v3_6_0::Far::PatchTable::StencilTablePtr", ptr %8, i64 %16
  %18 = load ptr, ptr %17, align 8
  %.not7 = icmp eq ptr %18, null
  br i1 %.not7, label %29, label %19

19:                                               ; preds = %15
  %20 = getelementptr inbounds nuw i8, ptr %18, i64 16
  %21 = getelementptr inbounds i8, ptr %18, i64 24
  %22 = load ptr, ptr %21, align 8
  %23 = load ptr, ptr %20, align 8
  %24 = ptrtoint ptr %22 to i64
  %25 = ptrtoint ptr %23 to i64
  %26 = sub i64 %24, %25
  %27 = lshr exact i64 %26, 2
  %28 = trunc i64 %27 to i32
  br label %29

29:                                               ; preds = %19, %2, %4, %15
  %.0 = phi i32 [ 0, %15 ], [ 0, %4 ], [ 0, %2 ], [ %28, %19 ]
  ret i32 %.0
}